target datalayout = "e-m:e-p270:32:32-p271:32:32-p272:64:64-i64:64-i128:128-f80:128-n8:16:32:64-S128"
target triple = "x86_64-pc-linux-gnu"

@protect_hfs = external global i32, align 4
@protect_ntfs = external global i32, align 4
@.str.54 = private unnamed_addr constant [8 x i8] c"modules\00", align 1

; Function Attrs: nounwind uwtable
define internal i32 @verify_dotfile(ptr noundef %0, i32 noundef %1) #0 {
  %3 = alloca i32, align 4
  %4 = alloca ptr, align 8
  %5 = alloca i32, align 4
  store ptr %0, ptr %4, align 8, !tbaa !11
  store i32 %1, ptr %5, align 4, !tbaa !9
  %6 = load ptr, ptr %4, align 8, !tbaa !11
  %7 = load i8, ptr %6, align 1, !tbaa !73
  %8 = sext i8 %7 to i32
  %9 = icmp eq i32 %8, 0
  br i1 %9, label %16, label %10

10:                                               ; preds = %2
  %11 = load ptr, ptr %4, align 8, !tbaa !11
  %12 = load i8, ptr %11, align 1, !tbaa !73
  %13 = sext i8 %12 to i32
  %14 = call i32 @git_is_dir_sep(i32 noundef %13)
  %15 = icmp ne i32 %14, 0
  br i1 %15, label %16, label %17

16:                                               ; preds = %10, %2
  store i32 0, ptr %3, align 4
  br label %101

17:                                               ; preds = %10
  %18 = load ptr, ptr %4, align 8, !tbaa !11
  %19 = load i8, ptr %18, align 1, !tbaa !73
  %20 = sext i8 %19 to i32
  switch i32 %20, label %100 [
    i32 103, label %21
    i32 71, label %21
    i32 46, label %85
  ]

21:                                               ; preds = %17, %17
  %22 = load ptr, ptr %4, align 8, !tbaa !11
  %23 = getelementptr inbounds i8, ptr %22, i64 1
  %24 = load i8, ptr %23, align 1, !tbaa !73
  %25 = sext i8 %24 to i32
  %26 = icmp ne i32 %25, 105
  br i1 %26, label %27, label %34

27:                                               ; preds = %21
  %28 = load ptr, ptr %4, align 8, !tbaa !11
  %29 = getelementptr inbounds i8, ptr %28, i64 1
  %30 = load i8, ptr %29, align 1, !tbaa !73
  %31 = sext i8 %30 to i32
  %32 = icmp ne i32 %31, 73
  br i1 %32, label %33, label %34

33:                                               ; preds = %27
  br label %100

34:                                               ; preds = %27, %21
  %35 = load ptr, ptr %4, align 8, !tbaa !11
  %36 = getelementptr inbounds i8, ptr %35, i64 2
  %37 = load i8, ptr %36, align 1, !tbaa !73
  %38 = sext i8 %37 to i32
  %39 = icmp ne i32 %38, 116
  br i1 %39, label %40, label %47

40:                                               ; preds = %34
  %41 = load ptr, ptr %4, align 8, !tbaa !11
  %42 = getelementptr inbounds i8, ptr %41, i64 2
  %43 = load i8, ptr %42, align 1, !tbaa !73
  %44 = sext i8 %43 to i32
  %45 = icmp ne i32 %44, 84
  br i1 %45, label %46, label %47

46:                                               ; preds = %40
  br label %100

47:                                               ; preds = %40, %34
  %48 = load ptr, ptr %4, align 8, !tbaa !11
  %49 = getelementptr inbounds i8, ptr %48, i64 3
  %50 = load i8, ptr %49, align 1, !tbaa !73
  %51 = sext i8 %50 to i32
  %52 = icmp eq i32 %51, 0
  br i1 %52, label %60, label %53

53:                                               ; preds = %47
  %54 = load ptr, ptr %4, align 8, !tbaa !11
  %55 = getelementptr inbounds i8, ptr %54, i64 3
  %56 = load i8, ptr %55, align 1, !tbaa !73
  %57 = sext i8 %56 to i32
  %58 = call i32 @git_is_dir_sep(i32 noundef %57)
  %59 = icmp ne i32 %58, 0
  br i1 %59, label %60, label %61

60:                                               ; preds = %53, %47
  store i32 0, ptr %3, align 4
  br label %101

61:                                               ; preds = %53
  %62 = load i32, ptr %5, align 4, !tbaa !9
  %63 = and i32 %62, 61440
  %64 = icmp eq i32 %63, 40960
  br i1 %64, label %65, label %84

65:                                               ; preds = %61
  %66 = load ptr, ptr %4, align 8, !tbaa !11
  %67 = getelementptr inbounds i8, ptr %66, i64 3
  store ptr %67, ptr %4, align 8, !tbaa !11
  %68 = load ptr, ptr %4, align 8, !tbaa !11
  %69 = call i32 @skip_iprefix(ptr noundef %68, ptr noundef @.str.54, ptr noundef %4)
  %70 = icmp ne i32 %69, 0
  br i1 %70, label %71, label %83

71:                                               ; preds = %65
  %72 = load ptr, ptr %4, align 8, !tbaa !11
  %73 = load i8, ptr %72, align 1, !tbaa !73
  %74 = sext i8 %73 to i32
  %75 = icmp eq i32 %74, 0
  br i1 %75, label %82, label %76

76:                                               ; preds = %71
  %77 = load ptr, ptr %4, align 8, !tbaa !11
  %78 = load i8, ptr %77, align 1, !tbaa !73
  %79 = sext i8 %78 to i32
  %80 = call i32 @git_is_dir_sep(i32 noundef %79)
  %81 = icmp ne i32 %80, 0
  br i1 %81, label %82, label %83

82:                                               ; preds = %76, %71
  store i32 0, ptr %3, align 4
  br label %101

83:                                               ; preds = %76, %65
  br label %84

84:                                               ; preds = %83, %61
  br label %100

85:                                               ; preds = %17
  %86 = load ptr, ptr %4, align 8, !tbaa !11
  %87 = getelementptr inbounds i8, ptr %86, i64 1
  %88 = load i8, ptr %87, align 1, !tbaa !73
  %89 = sext i8 %88 to i32
  %90 = icmp eq i32 %89, 0
  br i1 %90, label %98, label %91

91:                                               ; preds = %85
  %92 = load ptr, ptr %4, align 8, !tbaa !11
  %93 = getelementptr inbounds i8, ptr %92, i64 1
  %94 = load i8, ptr %93, align 1, !tbaa !73
  %95 = sext i8 %94 to i32
  %96 = call i32 @git_is_dir_sep(i32 noundef %95)
  %97 = icmp ne i32 %96, 0
  br i1 %97, label %98, label %99

98:                                               ; preds = %91, %85
  store i32 0, ptr %3, align 4
  br label %101

99:                                               ; preds = %91
  br label %100

100:                                              ; preds = %99, %17, %84, %46, %33
  store i32 1, ptr %3, align 4
  br label %101

101:                                              ; preds = %100, %98, %82, %60, %16
  %102 = load i32, ptr %3, align 4
  ret i32 %102
}

; Function Attrs: inlinehint nounwind uwtable
define internal i32 @git_is_dir_sep(i32 noundef %0) #3 {
  %2 = alloca i32, align 4
  store i32 %0, ptr %2, align 4, !tbaa !9
  %3 = load i32, ptr %2, align 4, !tbaa !9
  %4 = icmp eq i32 %3, 47
  %5 = zext i1 %4 to i32
  ret i32 %5
}

; Function Attrs: inlinehint nounwind uwtable
define internal i32 @git_has_dos_drive_prefix(ptr noundef %0) #3 {
  %2 = alloca ptr, align 8
  store ptr %0, ptr %2, align 8, !tbaa !11
  ret i32 0
}

; Function Attrs: nounwind uwtable
define internal i32 @verify_path_internal(ptr noundef %0, i32 noundef %1) #0 {
  %3 = alloca i32, align 4
  %4 = alloca ptr, align 8
  %5 = alloca i32, align 4
  %6 = alloca i8, align 1
  %7 = alloca i32, align 4
  store ptr %0, ptr %4, align 8, !tbaa !11
  store i32 %1, ptr %5, align 4, !tbaa !9
  call void @llvm.lifetime.start.p0(i64 1, ptr %6) #12
  store i8 0, ptr %6, align 1, !tbaa !73
  %8 = load ptr, ptr %4, align 8, !tbaa !11
  %9 = call i32 @git_has_dos_drive_prefix(ptr noundef %8)
  %10 = icmp ne i32 %9, 0
  br i1 %10, label %11, label %12

11:                                               ; preds = %2
  store i32 1, ptr %3, align 4
  store i32 1, ptr %7, align 4
  br label %118

12:                                               ; preds = %2
  br label %24

13:                                               ; No predecessors!
  br label %14

14:                                               ; preds = %114, %13
  %15 = load i8, ptr %6, align 1, !tbaa !73
  %16 = icmp ne i8 %15, 0
  br i1 %16, label %18, label %17

17:                                               ; preds = %14
  store i32 0, ptr %3, align 4
  store i32 1, ptr %7, align 4
  br label %118

18:                                               ; preds = %14
  %19 = load i8, ptr %6, align 1, !tbaa !73
  %20 = sext i8 %19 to i32
  %21 = call i32 @git_is_dir_sep(i32 noundef %20)
  %22 = icmp ne i32 %21, 0
  br i1 %22, label %23, label %90

23:                                               ; preds = %18
  br label %24

24:                                               ; preds = %23, %12
  %25 = load i32, ptr @protect_hfs, align 4, !tbaa !9
  %26 = icmp ne i32 %25, 0
  br i1 %26, label %27, label %43

27:                                               ; preds = %24
  %28 = load ptr, ptr %4, align 8, !tbaa !11
  %29 = call i32 @is_hfs_dotgit(ptr noundef %28)
  %30 = icmp ne i32 %29, 0
  br i1 %30, label %31, label %32

31:                                               ; preds = %27
  store i32 1, ptr %3, align 4
  store i32 1, ptr %7, align 4
  br label %118

32:                                               ; preds = %27
  %33 = load i32, ptr %5, align 4, !tbaa !9
  %34 = and i32 %33, 61440
  %35 = icmp eq i32 %34, 40960
  br i1 %35, label %36, label %42

36:                                               ; preds = %32
  %37 = load ptr, ptr %4, align 8, !tbaa !11
  %38 = call i32 @is_hfs_dotgitmodules(ptr noundef %37)
  %39 = icmp ne i32 %38, 0
  br i1 %39, label %40, label %41

40:                                               ; preds = %36
  store i32 1, ptr %3, align 4
  store i32 1, ptr %7, align 4
  br label %118

41:                                               ; preds = %36
  br label %42

42:                                               ; preds = %41, %32
  br label %43

43:                                               ; preds = %42, %24
  %44 = load i32, ptr @protect_ntfs, align 4, !tbaa !9
  %45 = icmp ne i32 %44, 0
  br i1 %45, label %46, label %62

46:                                               ; preds = %43
  %47 = load ptr, ptr %4, align 8, !tbaa !11
  %48 = call i32 @is_ntfs_dotgit(ptr noundef %47)
  %49 = icmp ne i32 %48, 0
  br i1 %49, label %50, label %51

50:                                               ; preds = %46
  store i32 1, ptr %3, align 4
  store i32 1, ptr %7, align 4
  br label %118

51:                                               ; preds = %46
  %52 = load i32, ptr %5, align 4, !tbaa !9
  %53 = and i32 %52, 61440
  %54 = icmp eq i32 %53, 40960
  br i1 %54, label %55, label %61

55:                                               ; preds = %51
  %56 = load ptr, ptr %4, align 8, !tbaa !11
  %57 = call i32 @is_ntfs_dotgitmodules(ptr noundef %56)
  %58 = icmp ne i32 %57, 0
  br i1 %58, label %59, label %60

59:                                               ; preds = %55
  store i32 1, ptr %3, align 4
  store i32 1, ptr %7, align 4
  br label %118

60:                                               ; preds = %55
  br label %61

61:                                               ; preds = %60, %51
  br label %62

62:                                               ; preds = %61, %43
  %63 = load ptr, ptr %4, align 8, !tbaa !11
  %64 = getelementptr inbounds nuw i8, ptr %63, i32 1
  store ptr %64, ptr %4, align 8, !tbaa !11
  %65 = load i8, ptr %63, align 1, !tbaa !73
  store i8 %65, ptr %6, align 1, !tbaa !73
  %66 = load i8, ptr %6, align 1, !tbaa !73
  %67 = sext i8 %66 to i32
  %68 = icmp eq i32 %67, 46
  br i1 %68, label %69, label %74

69:                                               ; preds = %62
  %70 = load ptr, ptr %4, align 8, !tbaa !11
  %71 = load i32, ptr %5, align 4, !tbaa !9
  %72 = call i32 @verify_dotfile(ptr noundef %70, i32 noundef %71)
  %73 = icmp ne i32 %72, 0
  br i1 %73, label %74, label %79

74:                                               ; preds = %69, %62
  %75 = load i8, ptr %6, align 1, !tbaa !73
  %76 = sext i8 %75 to i32
  %77 = call i32 @git_is_dir_sep(i32 noundef %76)
  %78 = icmp ne i32 %77, 0
  br i1 %78, label %79, label %80

79:                                               ; preds = %74, %69
  store i32 1, ptr %3, align 4
  store i32 1, ptr %7, align 4
  br label %118

80:                                               ; preds = %74
  %81 = load i8, ptr %6, align 1, !tbaa !73
  %82 = sext i8 %81 to i32
  %83 = icmp eq i32 %82, 0
  br i1 %83, label %84, label %89

84:                                               ; preds = %80
  %85 = load i32, ptr %5, align 4, !tbaa !9
  %86 = and i32 %85, 61440
  %87 = icmp eq i32 %86, 16384
  %88 = select i1 %87, i32 2, i32 1
  store i32 %88, ptr %3, align 4
  store i32 1, ptr %7, align 4
  br label %118

89:                                               ; preds = %80
  br label %114

90:                                               ; preds = %18
  %91 = load i8, ptr %6, align 1, !tbaa !73
  %92 = sext i8 %91 to i32
  %93 = icmp eq i32 %92, 92
  br i1 %93, label %94, label %113

94:                                               ; preds = %90
  %95 = load i32, ptr @protect_ntfs, align 4, !tbaa !9
  %96 = icmp ne i32 %95, 0
  br i1 %96, label %97, label %113

97:                                               ; preds = %94
  %98 = load ptr, ptr %4, align 8, !tbaa !11
  %99 = call i32 @is_ntfs_dotgit(ptr noundef %98)
  %100 = icmp ne i32 %99, 0
  br i1 %100, label %101, label %102

101:                                              ; preds = %97
  store i32 1, ptr %3, align 4
  store i32 1, ptr %7, align 4
  br label %118

102:                                              ; preds = %97
  %103 = load i32, ptr %5, align 4, !tbaa !9
  %104 = and i32 %103, 61440
  %105 = icmp eq i32 %104, 40960
  br i1 %105, label %106, label %112

106:                                              ; preds = %102
  %107 = load ptr, ptr %4, align 8, !tbaa !11
  %108 = call i32 @is_ntfs_dotgitmodules(ptr noundef %107)
  %109 = icmp ne i32 %108, 0
  br i1 %109, label %110, label %111

110:                                              ; preds = %106
  store i32 1, ptr %3, align 4
  store i32 1, ptr %7, align 4
  br label %118

111:                                              ; preds = %106
  br label %112

112:                                              ; preds = %111, %102
  br label %113

113:                                              ; preds = %112, %94, %90
  br label %114

114:                                              ; preds = %113, %89
  %115 = load ptr, ptr %4, align 8, !tbaa !11
  %116 = getelementptr inbounds nuw i8, ptr %115, i32 1
  store ptr %116, ptr %4, align 8, !tbaa !11
  %117 = load i8, ptr %115, align 1, !tbaa !73
  store i8 %117, ptr %6, align 1, !tbaa !73
  br label %14

118:                                              ; preds = %110, %101, %84, %79, %59, %50, %40, %31, %17, %11
  call void @llvm.lifetime.end.p0(i64 1, ptr %6) #12
  %119 = load i32, ptr %3, align 4
  ret i32 %119
}