; Function Attrs: nounwind uwtable
define internal fastcc range(i32 0, 3) i32 @verify_path_internal(ptr noundef %0, i32 noundef %1) unnamed_addr #0 {
  %3 = alloca ptr, align 8
  %4 = and i32 %1, 61440
  %5 = icmp eq i32 %4, 40960
  br label %.loopexit48

.loopexit48.backedge:                             ; preds = %.preheader.split, %.preheader.split.us
  %.022.be = phi ptr [ %22, %.preheader.split.us ], [ %60, %.preheader.split ]
  br label %.loopexit48

.loopexit48:                                      ; preds = %.loopexit48.backedge, %2
  %.022 = phi ptr [ %0, %2 ], [ %.022.be, %.loopexit48.backedge ]
  %6 = load i32, ptr @protect_hfs, align 4, !tbaa !32
  %.not = icmp eq i32 %6, 0
  br i1 %.not, label %12, label %7

7:                                                ; preds = %.loopexit48
  %8 = tail call i32 @is_hfs_dotgit(ptr noundef %.022) #30
  %.not26 = icmp eq i32 %8, 0
  br i1 %.not26, label %9, label %.loopexit

9:                                                ; preds = %7
  br i1 %5, label %10, label %12

10:                                               ; preds = %9
  %11 = tail call i32 @is_hfs_dotgitmodules(ptr noundef %.022) #30
  %.not27 = icmp eq i32 %11, 0
  br i1 %.not27, label %12, label %.loopexit

12:                                               ; preds = %9, %10, %.loopexit48
  %13 = load i32, ptr @protect_ntfs, align 4, !tbaa !32
  %.not28 = icmp eq i32 %13, 0
  br i1 %.not28, label %19, label %14

14:                                               ; preds = %12
  %15 = tail call i32 @is_ntfs_dotgit(ptr noundef %.022) #30
  %.not29 = icmp eq i32 %15, 0
  br i1 %.not29, label %16, label %.loopexit

16:                                               ; preds = %14
  br i1 %5, label %17, label %19

17:                                               ; preds = %16
  %18 = tail call i32 @is_ntfs_dotgitmodules(ptr noundef %.022) #30
  %.not30 = icmp eq i32 %18, 0
  br i1 %.not30, label %19, label %.loopexit

19:                                               ; preds = %16, %17, %12
  %20 = getelementptr inbounds nuw i8, ptr %.022, i64 1
  %21 = load i8, ptr %.022, align 1, !tbaa !38
  switch i8 %21, label %.preheader [
    i8 46, label %32
    i8 47, label %.loopexit
    i8 0, label %51
  ]

.preheader:                                       ; preds = %verify_dotfile.exit, %verify_dotfile.exit.thread40, %19
  br i1 %5, label %.preheader.split.us.preheader, label %.preheader.split

.preheader.split.us.preheader:                    ; preds = %46, %.preheader
  br label %.preheader.split.us

.preheader.split.us:                              ; preds = %.preheader.split.us.backedge, %.preheader.split.us.preheader
  %.1.us = phi ptr [ %20, %.preheader.split.us.preheader ], [ %22, %.preheader.split.us.backedge ]
  %22 = getelementptr inbounds nuw i8, ptr %.1.us, i64 1
  %23 = load i8, ptr %.1.us, align 1, !tbaa !38
  switch i8 %23, label %24 [
    i8 0, label %.loopexit
    i8 47, label %.loopexit48.backedge
  ]

24:                                               ; preds = %.preheader.split.us
  %25 = icmp eq i8 %23, 92
  %26 = load i32, ptr @protect_ntfs, align 4
  %27 = icmp ne i32 %26, 0
  %or.cond.us = select i1 %25, i1 %27, i1 false
  br i1 %or.cond.us, label %28, label %.preheader.split.us.backedge

28:                                               ; preds = %24
  %29 = tail call i32 @is_ntfs_dotgit(ptr noundef nonnull %22) #30
  %.not35.us = icmp eq i32 %29, 0
  br i1 %.not35.us, label %30, label %.loopexit

30:                                               ; preds = %28
  %31 = tail call i32 @is_ntfs_dotgitmodules(ptr noundef nonnull %22) #30
  %.not36.us = icmp eq i32 %31, 0
  br i1 %.not36.us, label %.preheader.split.us.backedge, label %.loopexit

.preheader.split.us.backedge:                     ; preds = %30, %24
  br label %.preheader.split.us

32:                                               ; preds = %19
  call void @llvm.lifetime.start.p0(i64 8, ptr nonnull %3)
  %33 = load i8, ptr %20, align 1, !tbaa !38
  switch i8 %33, label %verify_dotfile.exit.thread40 [
    i8 0, label %verify_dotfile.exit.thread
    i8 47, label %verify_dotfile.exit.thread
    i8 103, label %34
    i8 71, label %34
    i8 46, label %verify_dotfile.exit
  ]

34:                                               ; preds = %32, %32
  %35 = getelementptr inbounds nuw i8, ptr %.022, i64 2
  %36 = load i8, ptr %35, align 1, !tbaa !38
  switch i8 %36, label %verify_dotfile.exit.thread40 [
    i8 105, label %37
    i8 73, label %37
  ]

37:                                               ; preds = %34, %34
  %38 = getelementptr inbounds nuw i8, ptr %.022, i64 3
  %39 = load i8, ptr %38, align 1, !tbaa !38
  switch i8 %39, label %verify_dotfile.exit.thread40 [
    i8 116, label %40
    i8 84, label %40
  ]

40:                                               ; preds = %37, %37
  %41 = getelementptr inbounds nuw i8, ptr %.022, i64 4
  %42 = load i8, ptr %41, align 1, !tbaa !38
  switch i8 %42, label %43 [
    i8 0, label %verify_dotfile.exit.thread
    i8 47, label %verify_dotfile.exit.thread
  ]

43:                                               ; preds = %40
  br i1 %5, label %44, label %verify_dotfile.exit.thread40

44:                                               ; preds = %43
  store ptr %41, ptr %3, align 8, !tbaa !81
  %45 = call fastcc i32 @skip_iprefix(ptr noundef nonnull %41, ptr noundef %3)
  %.not14.i = icmp eq i32 %45, 0
  br i1 %.not14.i, label %verify_dotfile.exit.thread40, label %46

46:                                               ; preds = %44
  %47 = load ptr, ptr %3, align 8, !tbaa !81
  %48 = load i8, ptr %47, align 1, !tbaa !38
  call void @llvm.lifetime.end.p0(i64 8, ptr nonnull %3)
  switch i8 %48, label %.preheader.split.us.preheader [
    i8 47, label %.loopexit
    i8 0, label %.loopexit
  ]

verify_dotfile.exit.thread40:                     ; preds = %32, %34, %37, %43, %44
  call void @llvm.lifetime.end.p0(i64 8, ptr nonnull %3)
  br label %.preheader

verify_dotfile.exit.thread:                       ; preds = %32, %32, %40, %40
  call void @llvm.lifetime.end.p0(i64 8, ptr nonnull %3)
  br label %.loopexit

verify_dotfile.exit:                              ; preds = %32
  %49 = getelementptr inbounds nuw i8, ptr %.022, i64 2
  %50 = load i8, ptr %49, align 1, !tbaa !38
  call void @llvm.lifetime.end.p0(i64 8, ptr nonnull %3)
  switch i8 %50, label %.preheader [
    i8 47, label %.loopexit
    i8 0, label %.loopexit
  ]

51:                                               ; preds = %19
  %52 = icmp eq i32 %4, 16384
  %53 = select i1 %52, i32 2, i32 1
  br label %.loopexit

54:                                               ; preds = %.preheader.split
  %55 = icmp eq i8 %61, 92
  %56 = load i32, ptr @protect_ntfs, align 4
  %57 = icmp ne i32 %56, 0
  %or.cond = select i1 %55, i1 %57, i1 false
  br i1 %or.cond, label %58, label %.preheader.split.backedge

58:                                               ; preds = %54
  %59 = tail call i32 @is_ntfs_dotgit(ptr noundef nonnull %60) #30
  %.not35 = icmp eq i32 %59, 0
  br i1 %.not35, label %.preheader.split.backedge, label %.loopexit

.preheader.split.backedge:                        ; preds = %58, %54
  br label %.preheader.split

.preheader.split:                                 ; preds = %.preheader, %.preheader.split.backedge
  %.1 = phi ptr [ %60, %.preheader.split.backedge ], [ %20, %.preheader ]
  %60 = getelementptr inbounds nuw i8, ptr %.1, i64 1
  %61 = load i8, ptr %.1, align 1, !tbaa !38
  switch i8 %61, label %54 [
    i8 0, label %.loopexit
    i8 47, label %.loopexit48.backedge
  ]

.loopexit:                                        ; preds = %19, %17, %14, %10, %7, %46, %46, %verify_dotfile.exit, %verify_dotfile.exit, %58, %.preheader.split, %30, %28, %.preheader.split.us, %verify_dotfile.exit.thread, %51
  %.0 = phi i32 [ %53, %51 ], [ 1, %verify_dotfile.exit.thread ], [ 1, %30 ], [ 1, %28 ], [ 0, %.preheader.split.us ], [ 1, %58 ], [ 0, %.preheader.split ], [ 1, %verify_dotfile.exit ], [ 1, %verify_dotfile.exit ], [ 1, %46 ], [ 1, %46 ], [ 1, %7 ], [ 1, %10 ], [ 1, %14 ], [ 1, %17 ], [ 1, %19 ]
  ret i32 %.0
}